target datalayout = "e-m:e-p270:32:32-p271:32:32-p272:64:64-i64:64-i128:128-f80:128-n8:16:32:64-S128"
target triple = "x86_64-unknown-linux-gnu"

%"class.rocksdb::autovector.1041" = type { i64, [1280 x i8], ptr, %"class.std::vector.1042" }
%"class.std::vector.1042" = type { %"struct.std::_Vector_base.1043" }
%"struct.std::_Vector_base.1043" = type { %"struct.std::_Vector_base<rocksdb::DBImpl::MultiGetColumnFamilyData, std::allocator<rocksdb::DBImpl::MultiGetColumnFamilyData>>::_Vector_impl" }
%"struct.std::_Vector_base<rocksdb::DBImpl::MultiGetColumnFamilyData, std::allocator<rocksdb::DBImpl::MultiGetColumnFamilyData>>::_Vector_impl" = type { %"struct.std::_Vector_base<rocksdb::DBImpl::MultiGetColumnFamilyData, std::allocator<rocksdb::DBImpl::MultiGetColumnFamilyData>>::_Vector_impl_data" }
%"struct.std::_Vector_base<rocksdb::DBImpl::MultiGetColumnFamilyData, std::allocator<rocksdb::DBImpl::MultiGetColumnFamilyData>>::_Vector_impl_data" = type { ptr, ptr, ptr }
%"class.rocksdb::autovector<rocksdb::DBImpl::MultiGetColumnFamilyData, 32>::iterator_impl" = type { ptr, i64 }
%"struct.rocksdb::DBImpl::MultiGetColumnFamilyData" = type { ptr, ptr, i64, i64, ptr }

; Function Attrs: mustprogress nounwind uwtable
define linkonce_odr noundef nonnull align 8 dereferenceable(40) ptr @_ZNSt6vectorIN7rocksdb6DBImpl24MultiGetColumnFamilyDataESaIS2_EEixEm(ptr noundef nonnull align 8 dereferenceable(24) %this, i64 noundef %__n) #1 comdat align 2 {
entry:
  %this.addr = alloca ptr, align 8
  %__n.addr = alloca i64, align 8
  store ptr %this, ptr %this.addr, align 8
  store i64 %__n, ptr %__n.addr, align 8
  %this1 = load ptr, ptr %this.addr, align 8
  %_M_impl = getelementptr inbounds %"struct.std::_Vector_base.1043", ptr %this1, i32 0, i32 0
  %_M_start = getelementptr inbounds %"struct.std::_Vector_base<rocksdb::DBImpl::MultiGetColumnFamilyData, std::allocator<rocksdb::DBImpl::MultiGetColumnFamilyData>>::_Vector_impl_data", ptr %_M_impl, i32 0, i32 0
  %0 = load ptr, ptr %_M_start, align 8
  %1 = load i64, ptr %__n.addr, align 8
  %add.ptr = getelementptr inbounds %"struct.rocksdb::DBImpl::MultiGetColumnFamilyData", ptr %0, i64 %1
  ret ptr %add.ptr
}

; Function Attrs: mustprogress nounwind uwtable
define linkonce_odr noundef nonnull align 8 dereferenceable(40) ptr @_ZN7rocksdb10autovectorINS_6DBImpl24MultiGetColumnFamilyDataELm32EEixEm(ptr noundef nonnull align 8 dereferenceable(1320) %this, i64 noundef %n) #1 comdat align 2 {
entry:
  %retval = alloca ptr, align 8
  %this.addr = alloca ptr, align 8
  %n.addr = alloca i64, align 8
  store ptr %this, ptr %this.addr, align 8
  store i64 %n, ptr %n.addr, align 8
  %this1 = load ptr, ptr %this.addr, align 8
  %0 = load i64, ptr %n.addr, align 8
  %cmp = icmp ult i64 %0, 32
  br i1 %cmp, label %if.then, label %if.end

if.then:                                          ; preds = %entry
  %values_ = getelementptr inbounds %"class.rocksdb::autovector.1041", ptr %this1, i32 0, i32 2
  %1 = load ptr, ptr %values_, align 8
  %2 = load i64, ptr %n.addr, align 8
  %arrayidx = getelementptr inbounds %"struct.rocksdb::DBImpl::MultiGetColumnFamilyData", ptr %1, i64 %2
  store ptr %arrayidx, ptr %retval, align 8
  br label %return

if.end:                                           ; preds = %entry
  %vect_ = getelementptr inbounds %"class.rocksdb::autovector.1041", ptr %this1, i32 0, i32 3
  %3 = load i64, ptr %n.addr, align 8
  %sub = sub i64 %3, 32
  %call = call noundef nonnull align 8 dereferenceable(40) ptr @_ZNSt6vectorIN7rocksdb6DBImpl24MultiGetColumnFamilyDataESaIS2_EEixEm(ptr noundef nonnull align 8 dereferenceable(24) %vect_, i64 noundef %sub) #3
  store ptr %call, ptr %retval, align 8
  br label %return

return:                                           ; preds = %if.end, %if.then
  %4 = load ptr, ptr %retval, align 8
  ret ptr %4
}

; Function Attrs: mustprogress uwtable
define linkonce_odr noundef nonnull align 8 dereferenceable(40) ptr @_ZNK7rocksdb10autovectorINS_6DBImpl24MultiGetColumnFamilyDataELm32EE13iterator_implIS3_S2_EdeEv(ptr noundef nonnull align 8 dereferenceable(16) %this) #0 comdat align 2 {
entry:
  %this.addr = alloca ptr, align 8
  store ptr %this, ptr %this.addr, align 8
  %this1 = load ptr, ptr %this.addr, align 8
  %vect_ = getelementptr inbounds %"class.rocksdb::autovector<rocksdb::DBImpl::MultiGetColumnFamilyData, 32>::iterator_impl", ptr %this1, i32 0, i32 0
  %0 = load ptr, ptr %vect_, align 8
  %index_ = getelementptr inbounds %"class.rocksdb::autovector<rocksdb::DBImpl::MultiGetColumnFamilyData, 32>::iterator_impl", ptr %this1, i32 0, i32 1
  %1 = load i64, ptr %index_, align 8
  %call = call noundef nonnull align 8 dereferenceable(40) ptr @_ZN7rocksdb10autovectorINS_6DBImpl24MultiGetColumnFamilyDataELm32EEixEm(ptr noundef nonnull align 8 dereferenceable(1320) %0, i64 noundef %1)
  ret ptr %call
}

; Function Attrs: mustprogress uwtable
define internal noundef ptr @"_ZZN7rocksdb6DBImpl14MultiGetCommonERKNS_11ReadOptionsEmPPNS_18ColumnFamilyHandleEPKNS_5SliceEPNS_13PinnableSliceEPNS_19PinnableWideColumnsEPNSt7__cxx1112basic_stringIcSt11char_traitsIcESaIcEEEPNS_6StatusEbENK3$_0clERNS_10autovectorINS0_24MultiGetColumnFamilyDataELm32EE13iterator_implISQ_SP_EE"(ptr noundef nonnull align 1 dereferenceable(1) %this, ptr noundef nonnull align 8 dereferenceable(16) %cf_iter) #0 align 2 {
entry:
  %this.addr = alloca ptr, align 8
  %cf_iter.addr = alloca ptr, align 8
  store ptr %this, ptr %this.addr, align 8
  store ptr %cf_iter, ptr %cf_iter.addr, align 8
  %0 = load ptr, ptr %cf_iter.addr, align 8
  %call = call noundef nonnull align 8 dereferenceable(40) ptr @_ZNK7rocksdb10autovectorINS_6DBImpl24MultiGetColumnFamilyDataELm32EE13iterator_implIS3_S2_EdeEv(ptr noundef nonnull align 8 dereferenceable(16) %0)
  ret ptr %call
}

; Function Attrs: mustprogress nounwind uwtable
define linkonce_odr noundef ptr @_ZNKSt9_Any_data9_M_accessEv(ptr noundef nonnull align 8 dereferenceable(16) %this) #1 comdat align 2 {
entry:
  %this.addr = alloca ptr, align 8
  store ptr %this, ptr %this.addr, align 8
  %this1 = load ptr, ptr %this.addr, align 8
  %arrayidx = getelementptr inbounds [16 x i8], ptr %this1, i64 0, i64 0
  ret ptr %arrayidx
}

; Function Attrs: mustprogress uwtable
define internal noundef ptr @"_ZSt13__invoke_implIPN7rocksdb6DBImpl24MultiGetColumnFamilyDataERZNS1_14MultiGetCommonERKNS0_11ReadOptionsEmPPNS0_18ColumnFamilyHandleEPKNS0_5SliceEPNS0_13PinnableSliceEPNS0_19PinnableWideColumnsEPNSt7__cxx1112basic_stringIcSt11char_traitsIcESaIcEEEPNS0_6StatusEbE3$_0JRNS0_10autovectorIS2_Lm32EE13iterator_implIST_S2_EEEET_St14__invoke_otherOT0_DpOT1_"(ptr noundef nonnull align 1 dereferenceable(1) %__f, ptr noundef nonnull align 8 dereferenceable(16) %__args) #0 {
entry:
  %__f.addr = alloca ptr, align 8
  %__args.addr = alloca ptr, align 8
  store ptr %__f, ptr %__f.addr, align 8
  store ptr %__args, ptr %__args.addr, align 8
  %0 = load ptr, ptr %__f.addr, align 8
  %1 = load ptr, ptr %__args.addr, align 8
  %call = call noundef ptr @"_ZZN7rocksdb6DBImpl14MultiGetCommonERKNS_11ReadOptionsEmPPNS_18ColumnFamilyHandleEPKNS_5SliceEPNS_13PinnableSliceEPNS_19PinnableWideColumnsEPNSt7__cxx1112basic_stringIcSt11char_traitsIcESaIcEEEPNS_6StatusEbENK3$_0clERNS_10autovectorINS0_24MultiGetColumnFamilyDataELm32EE13iterator_implISQ_SP_EE"(ptr noundef nonnull align 1 dereferenceable(1) %0, ptr noundef nonnull align 8 dereferenceable(16) %1)
  ret ptr %call
}

; Function Attrs: mustprogress nounwind uwtable
define internal noundef nonnull align 1 dereferenceable(1) ptr @"_ZNKSt9_Any_data9_M_accessIZN7rocksdb6DBImpl14MultiGetCommonERKNS1_11ReadOptionsEmPPNS1_18ColumnFamilyHandleEPKNS1_5SliceEPNS1_13PinnableSliceEPNS1_19PinnableWideColumnsEPNSt7__cxx1112basic_stringIcSt11char_traitsIcESaIcEEEPNS1_6StatusEbE3$_0EERKT_v"(ptr noundef nonnull align 8 dereferenceable(16) %this) #1 align 2 {
entry:
  %this.addr = alloca ptr, align 8
  store ptr %this, ptr %this.addr, align 8
  %this1 = load ptr, ptr %this.addr, align 8
  %call = call noundef ptr @_ZNKSt9_Any_data9_M_accessEv(ptr noundef nonnull align 8 dereferenceable(16) %this1) #3
  ret ptr %call
}

; Function Attrs: mustprogress uwtable
define internal noundef ptr @"_ZSt10__invoke_rIPN7rocksdb6DBImpl24MultiGetColumnFamilyDataERZNS1_14MultiGetCommonERKNS0_11ReadOptionsEmPPNS0_18ColumnFamilyHandleEPKNS0_5SliceEPNS0_13PinnableSliceEPNS0_19PinnableWideColumnsEPNSt7__cxx1112basic_stringIcSt11char_traitsIcESaIcEEEPNS0_6StatusEbE3$_0JRNS0_10autovectorIS2_Lm32EE13iterator_implIST_S2_EEEENSt9enable_ifIX16is_invocable_r_vIT_T0_DpT1_EESY_E4typeEOSZ_DpOS10_"(ptr noundef nonnull align 1 dereferenceable(1) %__fn, ptr noundef nonnull align 8 dereferenceable(16) %__args) #0 {
entry:
  %__fn.addr = alloca ptr, align 8
  %__args.addr = alloca ptr, align 8
  store ptr %__fn, ptr %__fn.addr, align 8
  store ptr %__args, ptr %__args.addr, align 8
  %0 = load ptr, ptr %__fn.addr, align 8
  %1 = load ptr, ptr %__args.addr, align 8
  %call = call noundef ptr @"_ZSt13__invoke_implIPN7rocksdb6DBImpl24MultiGetColumnFamilyDataERZNS1_14MultiGetCommonERKNS0_11ReadOptionsEmPPNS0_18ColumnFamilyHandleEPKNS0_5SliceEPNS0_13PinnableSliceEPNS0_19PinnableWideColumnsEPNSt7__cxx1112basic_stringIcSt11char_traitsIcESaIcEEEPNS0_6StatusEbE3$_0JRNS0_10autovectorIS2_Lm32EE13iterator_implIST_S2_EEEET_St14__invoke_otherOT0_DpOT1_"(ptr noundef nonnull align 1 dereferenceable(1) %0, ptr noundef nonnull align 8 dereferenceable(16) %1)
  ret ptr %call
}

; Function Attrs: mustprogress nounwind uwtable
define internal noundef ptr @"_ZNSt14_Function_base13_Base_managerIZN7rocksdb6DBImpl14MultiGetCommonERKNS1_11ReadOptionsEmPPNS1_18ColumnFamilyHandleEPKNS1_5SliceEPNS1_13PinnableSliceEPNS1_19PinnableWideColumnsEPNSt7__cxx1112basic_stringIcSt11char_traitsIcESaIcEEEPNS1_6StatusEbE3$_0E14_M_get_pointerERKSt9_Any_data"(ptr noundef nonnull align 8 dereferenceable(16) %__source) #1 align 2 {
entry:
  %__source.addr = alloca ptr, align 8
  %__f = alloca ptr, align 8
  store ptr %__source, ptr %__source.addr, align 8
  %0 = load ptr, ptr %__source.addr, align 8
  %call = call noundef nonnull align 1 dereferenceable(1) ptr @"_ZNKSt9_Any_data9_M_accessIZN7rocksdb6DBImpl14MultiGetCommonERKNS1_11ReadOptionsEmPPNS1_18ColumnFamilyHandleEPKNS1_5SliceEPNS1_13PinnableSliceEPNS1_19PinnableWideColumnsEPNSt7__cxx1112basic_stringIcSt11char_traitsIcESaIcEEEPNS1_6StatusEbE3$_0EERKT_v"(ptr noundef nonnull align 8 dereferenceable(16) %0) #3
  store ptr %call, ptr %__f, align 8
  %1 = load ptr, ptr %__f, align 8
  ret ptr %1
}

; Function Attrs: mustprogress uwtable
define internal noundef ptr @"_ZNSt17_Function_handlerIFPN7rocksdb6DBImpl24MultiGetColumnFamilyDataERNS0_10autovectorIS2_Lm32EE13iterator_implIS5_S2_EEEZNS1_14MultiGetCommonERKNS0_11ReadOptionsEmPPNS0_18ColumnFamilyHandleEPKNS0_5SliceEPNS0_13PinnableSliceEPNS0_19PinnableWideColumnsEPNSt7__cxx1112basic_stringIcSt11char_traitsIcESaIcEEEPNS0_6StatusEbE3$_0E9_M_invokeERKSt9_Any_dataS8_"(ptr noundef nonnull align 8 dereferenceable(16) %__functor, ptr noundef nonnull align 8 dereferenceable(16) %__args) #0 align 2 {
entry:
  %__functor.addr = alloca ptr, align 8
  %__args.addr = alloca ptr, align 8
  store ptr %__functor, ptr %__functor.addr, align 8
  store ptr %__args, ptr %__args.addr, align 8
  %0 = load ptr, ptr %__functor.addr, align 8
  %call = call noundef ptr @"_ZNSt14_Function_base13_Base_managerIZN7rocksdb6DBImpl14MultiGetCommonERKNS1_11ReadOptionsEmPPNS1_18ColumnFamilyHandleEPKNS1_5SliceEPNS1_13PinnableSliceEPNS1_19PinnableWideColumnsEPNSt7__cxx1112basic_stringIcSt11char_traitsIcESaIcEEEPNS1_6StatusEbE3$_0E14_M_get_pointerERKSt9_Any_data"(ptr noundef nonnull align 8 dereferenceable(16) %0) #3
  %1 = load ptr, ptr %__args.addr, align 8
  %call1 = call noundef ptr @"_ZSt10__invoke_rIPN7rocksdb6DBImpl24MultiGetColumnFamilyDataERZNS1_14MultiGetCommonERKNS0_11ReadOptionsEmPPNS0_18ColumnFamilyHandleEPKNS0_5SliceEPNS0_13PinnableSliceEPNS0_19PinnableWideColumnsEPNSt7__cxx1112basic_stringIcSt11char_traitsIcESaIcEEEPNS0_6StatusEbE3$_0JRNS0_10autovectorIS2_Lm32EE13iterator_implIST_S2_EEEENSt9enable_ifIX16is_invocable_r_vIT_T0_DpT1_EESY_E4typeEOSZ_DpOS10_"(ptr noundef nonnull align 1 dereferenceable(1) %call, ptr noundef nonnull align 8 dereferenceable(16) %1)
  ret ptr %call1
}