; Function Attrs: mustprogress nofree norecurse nosync nounwind willreturn memory(read, inaccessiblemem: none) uwtable
define internal noundef ptr @"_ZNSt17_Function_handlerIFPN7rocksdb6DBImpl24MultiGetColumnFamilyDataERNS0_10autovectorIS2_Lm32EE13iterator_implIS5_S2_EEEZNS1_14MultiGetCommonERKNS0_11ReadOptionsEmPPNS0_18ColumnFamilyHandleEPKNS0_5SliceEPNS0_13PinnableSliceEPNS0_19PinnableWideColumnsEPNSt7__cxx1112basic_stringIcSt11char_traitsIcESaIcEEEPNS0_6StatusEbE3$_0E9_M_invokeERKSt9_Any_dataS8_"(ptr nocapture nonnull readnone align 8 %__functor, ptr nocapture noundef nonnull readonly align 8 dereferenceable(16) %__args) #4 align 2 {
entry:
  %__args.val = load ptr, ptr %__args, align 8
  %0 = getelementptr inbounds i8, ptr %__args, i64 8
  %__args.val1 = load i64, ptr %0, align 8
  %1 = getelementptr i8, ptr %__args.val, i64 1288
  %__args.val.val = load ptr, ptr %1, align 8
  %2 = getelementptr i8, ptr %__args.val, i64 1296
  %__args.val.val2 = load ptr, ptr %2, align 8
  %cmp.i.i.i.i.i = icmp ult i64 %__args.val1, 32
  %arrayidx.i.i.i.i.i = getelementptr inbounds %"struct.rocksdb::DBImpl::MultiGetColumnFamilyData", ptr %__args.val.val, i64 %__args.val1
  %3 = getelementptr %"struct.rocksdb::DBImpl::MultiGetColumnFamilyData", ptr %__args.val.val2, i64 %__args.val1
  %add.ptr.i.i.i.i.i.i = getelementptr i8, ptr %3, i64 -1280
  %retval.0.i.i.i.i.i = select i1 %cmp.i.i.i.i.i, ptr %arrayidx.i.i.i.i.i, ptr %add.ptr.i.i.i.i.i.i
  ret ptr %retval.0.i.i.i.i.i
}